(dp0
S'20'
p1
(lp2
I0
asS'21'
p3
(lp4
I0
asS'22'
p5
(lp6
I0
asS'1'
p7
(lp8
I356
aF251.0
aF316.0
aF260.0
aF394.0
aF431.0
aF328.0
aF387.0
aF385.0
aF333.0
aF318.0
aF348.0
aF392.0
aF250.0
aF441.0
aF336.0
aF405.0
aF398.0
aF345.0
aF362.0
aF394.0
aF402.0
aF348.0
aF371.0
aF417.0
aF374.0
aF353.0
aF285.0
asS'3'
p9
(lp10
I0
asS'2'
p11
(lp12
I0
asS'5'
p13
(lp14
I0
asS'4'
p15
(lp16
I0
asS'7'
p17
(lp18
I0
asS'6'
p19
(lp20
I0
asS'9'
p21
(lp22
I0
asS'8'
p23
(lp24
I0
asS'Y'
p25
(lp26
I0
asS'X'
p27
(lp28
I0
asS'11'
p29
(lp30
I0
asS'10'
p31
(lp32
I0
asS'13'
p33
(lp34
I0
asS'12'
p35
(lp36
I0
asS'15'
p37
(lp38
I0
asS'14'
p39
(lp40
I0
asS'17'
p41
(lp42
I0
asS'16'
p43
(lp44
I0
asS'19'
p45
(lp46
I0
asS'18'
p47
(lp48
I0
as.